; ModuleID = '22/1037.c'
source_filename = "22/1037.c"
target datalayout = "e-m:e-p270:32:32-p271:32:32-p272:64:64-i64:64-f80:128-n8:16:32:64-S128"
target triple = "x86_64-pc-linux-gnu"

@.str = private unnamed_addr constant [4 x i8] c"No\0A\00", align 1
@.str.1 = private unnamed_addr constant [4 x i8] c"%d\0A\00", align 1

; Function Attrs: noinline nounwind uwtable
define dso_local i32 @main() #0 {
  %1 = alloca i32, align 4
  %2 = alloca i32, align 4
  %3 = alloca i32, align 4
  %4 = alloca i32, align 4
  %5 = alloca i32, align 4
  %6 = alloca i32, align 4
  %7 = alloca [300 x i32], align 16
  %8 = alloca i8, align 1
  store i32 0, i32* %1, align 4
  store i32 1, i32* %3, align 4
  store i32 -1, i32* %5, align 4
  store i32 0, i32* %6, align 4
  store i32 0, i32* %2, align 4
  br label %9

9:                                                ; preds = %34, %0
  %10 = call i32 @getchar()
  %11 = trunc i32 %10 to i8
  store i8 %11, i8* %8, align 1
  %12 = sext i8 %11 to i32
  %13 = icmp ne i32 %12, 10
  br i1 %13, label %14, label %35

14:                                               ; preds = %9
  %15 = load i8, i8* %8, align 1
  %16 = sext i8 %15 to i32
  %17 = icmp eq i32 %16, 44
  br i1 %17, label %18, label %27

18:                                               ; preds = %14
  %19 = load i32, i32* %6, align 4
  %20 = load i32, i32* %2, align 4
  %21 = sext i32 %20 to i64
  %22 = getelementptr inbounds [300 x i32], [300 x i32]* %7, i64 0, i64 %21
  store i32 %19, i32* %22, align 4
  store i32 0, i32* %6, align 4
  %23 = load i32, i32* %2, align 4
  %24 = add nsw i32 %23, 1
  store i32 %24, i32* %2, align 4
  %25 = load i32, i32* %3, align 4
  %26 = add nsw i32 %25, 1
  store i32 %26, i32* %3, align 4
  br label %34

27:                                               ; preds = %14
  %28 = load i32, i32* %6, align 4
  %29 = mul nsw i32 %28, 10
  %30 = load i8, i8* %8, align 1
  %31 = sext i8 %30 to i32
  %32 = add nsw i32 %29, %31
  %33 = sub nsw i32 %32, 48
  store i32 %33, i32* %6, align 4
  br label %34

34:                                               ; preds = %27, %18
  br label %9

35:                                               ; preds = %9
  %36 = load i32, i32* %6, align 4
  %37 = load i32, i32* %2, align 4
  %38 = sext i32 %37 to i64
  %39 = getelementptr inbounds [300 x i32], [300 x i32]* %7, i64 0, i64 %38
  store i32 %36, i32* %39, align 4
  %40 = getelementptr inbounds [300 x i32], [300 x i32]* %7, i64 0, i64 0
  %41 = load i32, i32* %40, align 16
  store i32 %41, i32* %4, align 4
  store i32 1, i32* %2, align 4
  br label %42

42:                                               ; preds = %81, %35
  %43 = load i32, i32* %2, align 4
  %44 = load i32, i32* %3, align 4
  %45 = sub nsw i32 %44, 1
  %46 = icmp sle i32 %43, %45
  br i1 %46, label %47, label %84

47:                                               ; preds = %42
  %48 = load i32, i32* %4, align 4
  %49 = load i32, i32* %2, align 4
  %50 = sext i32 %49 to i64
  %51 = getelementptr inbounds [300 x i32], [300 x i32]* %7, i64 0, i64 %50
  %52 = load i32, i32* %51, align 4
  %53 = icmp slt i32 %48, %52
  br i1 %53, label %54, label %60

54:                                               ; preds = %47
  %55 = load i32, i32* %4, align 4
  store i32 %55, i32* %5, align 4
  %56 = load i32, i32* %2, align 4
  %57 = sext i32 %56 to i64
  %58 = getelementptr inbounds [300 x i32], [300 x i32]* %7, i64 0, i64 %57
  %59 = load i32, i32* %58, align 4
  store i32 %59, i32* %4, align 4
  br label %80

60:                                               ; preds = %47
  %61 = load i32, i32* %5, align 4
  %62 = load i32, i32* %2, align 4
  %63 = sext i32 %62 to i64
  %64 = getelementptr inbounds [300 x i32], [300 x i32]* %7, i64 0, i64 %63
  %65 = load i32, i32* %64, align 4
  %66 = icmp slt i32 %61, %65
  br i1 %66, label %67, label %79

67:                                               ; preds = %60
  %68 = load i32, i32* %2, align 4
  %69 = sext i32 %68 to i64
  %70 = getelementptr inbounds [300 x i32], [300 x i32]* %7, i64 0, i64 %69
  %71 = load i32, i32* %70, align 4
  %72 = load i32, i32* %4, align 4
  %73 = icmp slt i32 %71, %72
  br i1 %73, label %74, label %79

74:                                               ; preds = %67
  %75 = load i32, i32* %2, align 4
  %76 = sext i32 %75 to i64
  %77 = getelementptr inbounds [300 x i32], [300 x i32]* %7, i64 0, i64 %76
  %78 = load i32, i32* %77, align 4
  store i32 %78, i32* %5, align 4
  br label %79

79:                                               ; preds = %74, %67, %60
  br label %80

80:                                               ; preds = %79, %54
  br label %81

81:                                               ; preds = %80
  %82 = load i32, i32* %2, align 4
  %83 = add nsw i32 %82, 1
  store i32 %83, i32* %2, align 4
  br label %42

84:                                               ; preds = %42
  %85 = load i32, i32* %3, align 4
  %86 = icmp eq i32 %85, 1
  br i1 %86, label %90, label %87

87:                                               ; preds = %84
  %88 = load i32, i32* %5, align 4
  %89 = icmp eq i32 %88, -1
  br i1 %89, label %90, label %92

90:                                               ; preds = %87, %84
  %91 = call i32 (i8*, ...) @printf(i8* getelementptr inbounds ([4 x i8], [4 x i8]* @.str, i64 0, i64 0))
  br label %95

92:                                               ; preds = %87
  %93 = load i32, i32* %5, align 4
  %94 = call i32 (i8*, ...) @printf(i8* getelementptr inbounds ([4 x i8], [4 x i8]* @.str.1, i64 0, i64 0), i32 %93)
  br label %95

95:                                               ; preds = %92, %90
  ret i32 0
}

declare dso_local i32 @getchar() #1

declare dso_local i32 @printf(i8*, ...) #1


!llvm.module.flags = !{!0}
!llvm.ident = !{!1}

!0 = !{i32 1, !"wchar_size", i32 4}
!1 = !{!"clang version 10.0.0-4ubuntu1 "}
